; ModuleID = '61/519.c'
source_filename = "61/519.c"
target datalayout = "e-m:e-p270:32:32-p271:32:32-p272:64:64-i64:64-f80:128-n8:16:32:64-S128"
target triple = "x86_64-pc-linux-gnu"

@.str = private unnamed_addr constant [3 x i8] c"%d\00", align 1
@.str.1 = private unnamed_addr constant [4 x i8] c"%d\0A\00", align 1

; Function Attrs: noinline nounwind uwtable
define dso_local i32 @main() #0 {
  %1 = alloca i32, align 4
  %2 = alloca [100 x i32], align 16
  %3 = alloca i32, align 4
  %4 = alloca i32, align 4
  %5 = alloca i32, align 4
  store i32 0, i32* %1, align 4
  %6 = call i32 (i8*, ...) @__isoc99_scanf(i8* getelementptr inbounds ([3 x i8], [3 x i8]* @.str, i64 0, i64 0), i32* %3)
  store i32 0, i32* %5, align 4
  br label %7

7:                                                ; preds = %16, %0
  %8 = load i32, i32* %5, align 4
  %9 = load i32, i32* %3, align 4
  %10 = icmp slt i32 %8, %9
  br i1 %10, label %11, label %19

11:                                               ; preds = %7
  %12 = load i32, i32* %5, align 4
  %13 = sext i32 %12 to i64
  %14 = getelementptr inbounds [100 x i32], [100 x i32]* %2, i64 0, i64 %13
  %15 = call i32 (i8*, ...) @__isoc99_scanf(i8* getelementptr inbounds ([3 x i8], [3 x i8]* @.str, i64 0, i64 0), i32* %14)
  br label %16

16:                                               ; preds = %11
  %17 = load i32, i32* %5, align 4
  %18 = add nsw i32 %17, 1
  store i32 %18, i32* %5, align 4
  br label %7

19:                                               ; preds = %7
  store i32 0, i32* %5, align 4
  br label %20

20:                                               ; preds = %32, %19
  %21 = load i32, i32* %5, align 4
  %22 = load i32, i32* %3, align 4
  %23 = icmp slt i32 %21, %22
  br i1 %23, label %24, label %35

24:                                               ; preds = %20
  %25 = load i32, i32* %5, align 4
  %26 = sext i32 %25 to i64
  %27 = getelementptr inbounds [100 x i32], [100 x i32]* %2, i64 0, i64 %26
  %28 = load i32, i32* %27, align 4
  %29 = call i32 @fibo(i32 %28)
  store i32 %29, i32* %4, align 4
  %30 = load i32, i32* %4, align 4
  %31 = call i32 (i8*, ...) @printf(i8* getelementptr inbounds ([4 x i8], [4 x i8]* @.str.1, i64 0, i64 0), i32 %30)
  br label %32

32:                                               ; preds = %24
  %33 = load i32, i32* %5, align 4
  %34 = add nsw i32 %33, 1
  store i32 %34, i32* %5, align 4
  br label %20

35:                                               ; preds = %20
  ret i32 0
}

declare dso_local i32 @__isoc99_scanf(i8*, ...) #1

; Function Attrs: noinline nounwind uwtable
define dso_local i32 @fibo(i32 %0) #0 {
  %2 = alloca i32, align 4
  %3 = alloca i32, align 4
  %4 = alloca i32, align 4
  %5 = alloca i32, align 4
  %6 = alloca i32, align 4
  %7 = alloca i32, align 4
  store i32 %0, i32* %2, align 4
  store i32 1, i32* %3, align 4
  store i32 1, i32* %4, align 4
  %8 = load i32, i32* %2, align 4
  %9 = icmp eq i32 %8, 1
  br i1 %9, label %13, label %10

10:                                               ; preds = %1
  %11 = load i32, i32* %2, align 4
  %12 = icmp eq i32 %11, 2
  br i1 %12, label %13, label %14

13:                                               ; preds = %10, %1
  store i32 1, i32* %6, align 4
  br label %30

14:                                               ; preds = %10
  %15 = load i32, i32* %2, align 4
  store i32 %15, i32* %7, align 4
  br label %16

16:                                               ; preds = %25, %14
  %17 = load i32, i32* %7, align 4
  %18 = icmp sgt i32 %17, 2
  br i1 %18, label %19, label %28

19:                                               ; preds = %16
  %20 = load i32, i32* %4, align 4
  store i32 %20, i32* %5, align 4
  %21 = load i32, i32* %4, align 4
  %22 = load i32, i32* %3, align 4
  %23 = add nsw i32 %21, %22
  store i32 %23, i32* %4, align 4
  %24 = load i32, i32* %5, align 4
  store i32 %24, i32* %3, align 4
  br label %25

25:                                               ; preds = %19
  %26 = load i32, i32* %7, align 4
  %27 = add nsw i32 %26, -1
  store i32 %27, i32* %7, align 4
  br label %16

28:                                               ; preds = %16
  %29 = load i32, i32* %4, align 4
  store i32 %29, i32* %6, align 4
  br label %30

30:                                               ; preds = %28, %13
  %31 = load i32, i32* %6, align 4
  ret i32 %31
}

declare dso_local i32 @printf(i8*, ...) #1


!llvm.module.flags = !{!0}
!llvm.ident = !{!1}

!0 = !{i32 1, !"wchar_size", i32 4}
!1 = !{!"clang version 10.0.0-4ubuntu1 "}
